; Function Attrs: null_pointer_is_valid sspstrong uwtable
define internal void @uat_key_record_free_cb(ptr noundef readonly captures(none) %0) #0 {
  %2 = load ptr, ptr %0, align 8
  tail call void @g_free(ptr noundef %2)
  %3 = getelementptr inbounds nuw i8, ptr %0, i64 8
  %4 = load ptr, ptr %3, align 8
  tail call void @g_free(ptr noundef %4)
  %5 = getelementptr inbounds nuw i8, ptr %0, i64 16
  %6 = load ptr, ptr %5, align 8
  tail call void @g_free(ptr noundef %6)
  %7 = getelementptr inbounds nuw i8, ptr %0, i64 24
  %8 = load ptr, ptr %7, align 8
  tail call void @g_free(ptr noundef %8)
  ret void
}